target datalayout = "e-m:e-p270:32:32-p271:32:32-p272:64:64-i64:64-i128:128-f80:128-n8:16:32:64-S128"
target triple = "x86_64-pc-linux-gnu"

%struct.SizeClassConfig = type { [40 x i32], [1025 x i8], i32 }
%struct.lua_State = type { i8, i8, i8, i8, i8, i8, i8, ptr, ptr, ptr, ptr, ptr, ptr, ptr, ptr, i32, i32, i16, i16, i32, ptr, ptr, ptr, ptr, ptr }
%struct.global_State = type { %struct.stringtable, ptr, ptr, i8, i8, ptr, ptr, ptr, i64, i64, i32, i32, i32, [40 x ptr], [40 x ptr], ptr, ptr, ptr, [256 x i64], ptr, %struct.UpVal, [11 x ptr], [11 x ptr], [21 x ptr], %struct.lua_TValue, %struct.lua_TValue, i32, ptr, i64, [4 x i64], %struct.lua_Callbacks, %struct.lua_ExecutionCallbacks, [128 x ptr], [128 x ptr], [128 x ptr], %struct.GCStats }
%struct.stringtable = type { ptr, i32, i32 }
%struct.UpVal = type { i8, i8, i8, i8, ptr, %union.anon }
%union.anon = type { %struct.anon }
%struct.anon = type { ptr, ptr, ptr }
%struct.lua_TValue = type { %union.Value, [1 x i32], i32 }
%union.Value = type { ptr }
%struct.lua_Callbacks = type { ptr, ptr, ptr, ptr, ptr, ptr, ptr, ptr, ptr, ptr }
%struct.lua_ExecutionCallbacks = type { ptr, ptr, ptr, ptr, ptr, ptr, ptr }
%struct.GCStats = type { [32 x i32], i32, i32, i64, i64, i64, double, double, double }
%struct.lua_Page = type { ptr, ptr, ptr, ptr, i32, i32, ptr, i32, i32, %union.anon.0 }
%union.anon.0 = type { double }

@_ZL16kSizeClassConfig = internal global %struct.SizeClassConfig zeroinitializer, align 4

; Function Attrs: mustprogress uwtable
define internal noundef ptr @_ZL8newblockP9lua_Statei(ptr noundef %0, i32 noundef %1) #5 {
  %3 = alloca ptr, align 8
  %4 = alloca i32, align 4
  %5 = alloca ptr, align 8
  %6 = alloca ptr, align 8
  %7 = alloca ptr, align 8
  store ptr %0, ptr %3, align 8, !tbaa !21
  store i32 %1, ptr %4, align 4, !tbaa !12
  call void @llvm.lifetime.start.p0(i64 8, ptr %5) #10
  %8 = load ptr, ptr %3, align 8, !tbaa !21
  %9 = getelementptr inbounds nuw %struct.lua_State, ptr %8, i32 0, i32 9
  %10 = load ptr, ptr %9, align 8, !tbaa !25
  store ptr %10, ptr %5, align 8, !tbaa !36
  call void @llvm.lifetime.start.p0(i64 8, ptr %6) #10
  %11 = load ptr, ptr %5, align 8, !tbaa !36
  %12 = getelementptr inbounds nuw %struct.global_State, ptr %11, i32 0, i32 13
  %13 = load i32, ptr %4, align 4, !tbaa !12
  %14 = sext i32 %13 to i64
  %15 = getelementptr inbounds [40 x ptr], ptr %12, i64 0, i64 %14
  %16 = load ptr, ptr %15, align 8, !tbaa !54
  store ptr %16, ptr %6, align 8, !tbaa !54
  %17 = load ptr, ptr %6, align 8, !tbaa !54
  %18 = icmp ne ptr %17, null
  br i1 %18, label %27, label %19

19:                                               ; preds = %2
  %20 = load ptr, ptr %3, align 8, !tbaa !21
  %21 = load ptr, ptr %5, align 8, !tbaa !36
  %22 = getelementptr inbounds nuw %struct.global_State, ptr %21, i32 0, i32 13
  %23 = getelementptr inbounds [40 x ptr], ptr %22, i64 0, i64 0
  %24 = load i32, ptr %4, align 4, !tbaa !12
  %25 = trunc i32 %24 to i8
  %26 = call noundef ptr @_ZL12newclasspageP9lua_StatePP8lua_PageS3_hb(ptr noundef %20, ptr noundef %23, ptr noundef null, i8 noundef zeroext %25, i1 noundef zeroext true)
  store ptr %26, ptr %6, align 8, !tbaa !54
  br label %27

27:                                               ; preds = %19, %2
  call void @llvm.lifetime.start.p0(i64 8, ptr %7) #10
  %28 = load ptr, ptr %6, align 8, !tbaa !54
  %29 = getelementptr inbounds nuw %struct.lua_Page, ptr %28, i32 0, i32 7
  %30 = load i32, ptr %29, align 8, !tbaa !55
  %31 = icmp sge i32 %30, 0
  br i1 %31, label %32, label %51

32:                                               ; preds = %27
  %33 = load ptr, ptr %6, align 8, !tbaa !54
  %34 = getelementptr inbounds nuw %struct.lua_Page, ptr %33, i32 0, i32 9
  %35 = load ptr, ptr %6, align 8, !tbaa !54
  %36 = getelementptr inbounds nuw %struct.lua_Page, ptr %35, i32 0, i32 7
  %37 = load i32, ptr %36, align 8, !tbaa !55
  %38 = sext i32 %37 to i64
  %39 = getelementptr inbounds [1 x i8], ptr %34, i64 %38
  store ptr %39, ptr %7, align 8, !tbaa !51
  %40 = load ptr, ptr %6, align 8, !tbaa !54
  %41 = getelementptr inbounds nuw %struct.lua_Page, ptr %40, i32 0, i32 5
  %42 = load i32, ptr %41, align 4, !tbaa !57
  %43 = load ptr, ptr %6, align 8, !tbaa !54
  %44 = getelementptr inbounds nuw %struct.lua_Page, ptr %43, i32 0, i32 7
  %45 = load i32, ptr %44, align 8, !tbaa !55
  %46 = sub nsw i32 %45, %42
  store i32 %46, ptr %44, align 8, !tbaa !55
  %47 = load ptr, ptr %6, align 8, !tbaa !54
  %48 = getelementptr inbounds nuw %struct.lua_Page, ptr %47, i32 0, i32 8
  %49 = load i32, ptr %48, align 4, !tbaa !58
  %50 = add nsw i32 %49, 1
  store i32 %50, ptr %48, align 4, !tbaa !58
  br label %63

51:                                               ; preds = %27
  %52 = load ptr, ptr %6, align 8, !tbaa !54
  %53 = getelementptr inbounds nuw %struct.lua_Page, ptr %52, i32 0, i32 6
  %54 = load ptr, ptr %53, align 8, !tbaa !59
  store ptr %54, ptr %7, align 8, !tbaa !51
  %55 = load ptr, ptr %7, align 8, !tbaa !51
  %56 = load ptr, ptr %55, align 8, !tbaa !51
  %57 = load ptr, ptr %6, align 8, !tbaa !54
  %58 = getelementptr inbounds nuw %struct.lua_Page, ptr %57, i32 0, i32 6
  store ptr %56, ptr %58, align 8, !tbaa !59
  %59 = load ptr, ptr %6, align 8, !tbaa !54
  %60 = getelementptr inbounds nuw %struct.lua_Page, ptr %59, i32 0, i32 8
  %61 = load i32, ptr %60, align 4, !tbaa !58
  %62 = add nsw i32 %61, 1
  store i32 %62, ptr %60, align 4, !tbaa !58
  br label %63

63:                                               ; preds = %51, %32
  %64 = load ptr, ptr %6, align 8, !tbaa !54
  %65 = load ptr, ptr %7, align 8, !tbaa !51
  store ptr %64, ptr %65, align 8, !tbaa !51
  %66 = load ptr, ptr %6, align 8, !tbaa !54
  %67 = getelementptr inbounds nuw %struct.lua_Page, ptr %66, i32 0, i32 6
  %68 = load ptr, ptr %67, align 8, !tbaa !59
  %69 = icmp ne ptr %68, null
  br i1 %69, label %96, label %70

70:                                               ; preds = %63
  %71 = load ptr, ptr %6, align 8, !tbaa !54
  %72 = getelementptr inbounds nuw %struct.lua_Page, ptr %71, i32 0, i32 7
  %73 = load i32, ptr %72, align 8, !tbaa !55
  %74 = icmp slt i32 %73, 0
  br i1 %74, label %75, label %96

75:                                               ; preds = %70
  %76 = load ptr, ptr %6, align 8, !tbaa !54
  %77 = getelementptr inbounds nuw %struct.lua_Page, ptr %76, i32 0, i32 1
  %78 = load ptr, ptr %77, align 8, !tbaa !60
  %79 = load ptr, ptr %5, align 8, !tbaa !36
  %80 = getelementptr inbounds nuw %struct.global_State, ptr %79, i32 0, i32 13
  %81 = load i32, ptr %4, align 4, !tbaa !12
  %82 = sext i32 %81 to i64
  %83 = getelementptr inbounds [40 x ptr], ptr %80, i64 0, i64 %82
  store ptr %78, ptr %83, align 8, !tbaa !54
  %84 = load ptr, ptr %6, align 8, !tbaa !54
  %85 = getelementptr inbounds nuw %struct.lua_Page, ptr %84, i32 0, i32 1
  %86 = load ptr, ptr %85, align 8, !tbaa !60
  %87 = icmp ne ptr %86, null
  br i1 %87, label %88, label %93

88:                                               ; preds = %75
  %89 = load ptr, ptr %6, align 8, !tbaa !54
  %90 = getelementptr inbounds nuw %struct.lua_Page, ptr %89, i32 0, i32 1
  %91 = load ptr, ptr %90, align 8, !tbaa !60
  %92 = getelementptr inbounds nuw %struct.lua_Page, ptr %91, i32 0, i32 0
  store ptr null, ptr %92, align 8, !tbaa !61
  br label %93

93:                                               ; preds = %88, %75
  %94 = load ptr, ptr %6, align 8, !tbaa !54
  %95 = getelementptr inbounds nuw %struct.lua_Page, ptr %94, i32 0, i32 1
  store ptr null, ptr %95, align 8, !tbaa !60
  br label %96

96:                                               ; preds = %93, %70, %63
  %97 = load ptr, ptr %7, align 8, !tbaa !51
  %98 = getelementptr inbounds nuw i8, ptr %97, i64 8
  call void @llvm.lifetime.end.p0(i64 8, ptr %7) #10
  call void @llvm.lifetime.end.p0(i64 8, ptr %6) #10
  call void @llvm.lifetime.end.p0(i64 8, ptr %5) #10
  ret ptr %98
}

; Function Attrs: mustprogress uwtable
define hidden noundef ptr @_Z9luaM_new_P9lua_Statemh(ptr noundef %0, i64 noundef %1, i8 noundef zeroext %2) #5 {
  %4 = alloca ptr, align 8
  %5 = alloca i64, align 8
  %6 = alloca i8, align 1
  %7 = alloca ptr, align 8
  %8 = alloca i32, align 4
  %9 = alloca ptr, align 8
  store ptr %0, ptr %4, align 8, !tbaa !21
  store i64 %1, ptr %5, align 8, !tbaa !23
  store i8 %2, ptr %6, align 1, !tbaa !18
  call void @llvm.lifetime.start.p0(i64 8, ptr %7) #10
  %10 = load ptr, ptr %4, align 8, !tbaa !21
  %11 = getelementptr inbounds nuw %struct.lua_State, ptr %10, i32 0, i32 9
  %12 = load ptr, ptr %11, align 8, !tbaa !25
  store ptr %12, ptr %7, align 8, !tbaa !36
  call void @llvm.lifetime.start.p0(i64 4, ptr %8) #10
  %13 = load i64, ptr %5, align 8, !tbaa !23
  %14 = sub i64 %13, 1
  %15 = icmp ult i64 %14, 1024
  br i1 %15, label %16, label %21

16:                                               ; preds = %3
  %17 = load i64, ptr %5, align 8, !tbaa !23
  %18 = getelementptr inbounds nuw [1025 x i8], ptr getelementptr inbounds nuw (%struct.SizeClassConfig, ptr @_ZL16kSizeClassConfig, i32 0, i32 1), i64 0, i64 %17
  %19 = load i8, ptr %18, align 1, !tbaa !18
  %20 = sext i8 %19 to i32
  br label %22

21:                                               ; preds = %3
  br label %22

22:                                               ; preds = %21, %16
  %23 = phi i32 [ %20, %16 ], [ -1, %21 ]
  store i32 %23, ptr %8, align 4, !tbaa !12
  call void @llvm.lifetime.start.p0(i64 8, ptr %9) #10
  %24 = load i32, ptr %8, align 4, !tbaa !12
  %25 = icmp sge i32 %24, 0
  br i1 %25, label %26, label %30

26:                                               ; preds = %22
  %27 = load ptr, ptr %4, align 8, !tbaa !21
  %28 = load i32, ptr %8, align 4, !tbaa !12
  %29 = call noundef ptr @_ZL8newblockP9lua_Statei(ptr noundef %27, i32 noundef %28)
  br label %39

30:                                               ; preds = %22
  %31 = load ptr, ptr %7, align 8, !tbaa !36
  %32 = getelementptr inbounds nuw %struct.global_State, ptr %31, i32 0, i32 1
  %33 = load ptr, ptr %32, align 8, !tbaa !37
  %34 = load ptr, ptr %7, align 8, !tbaa !36
  %35 = getelementptr inbounds nuw %struct.global_State, ptr %34, i32 0, i32 2
  %36 = load ptr, ptr %35, align 8, !tbaa !50
  %37 = load i64, ptr %5, align 8, !tbaa !23
  %38 = call noundef ptr %33(ptr noundef %36, ptr noundef null, i64 noundef 0, i64 noundef %37)
  br label %39

39:                                               ; preds = %30, %26
  %40 = phi ptr [ %29, %26 ], [ %38, %30 ]
  store ptr %40, ptr %9, align 8, !tbaa !51
  %41 = load ptr, ptr %9, align 8, !tbaa !51
  %42 = icmp eq ptr %41, null
  br i1 %42, label %43, label %48

43:                                               ; preds = %39
  %44 = load i64, ptr %5, align 8, !tbaa !23
  %45 = icmp ugt i64 %44, 0
  br i1 %45, label %46, label %48

46:                                               ; preds = %43
  %47 = load ptr, ptr %4, align 8, !tbaa !21
  call void @_Z10luaD_throwP9lua_Statei(ptr noundef %47, i32 noundef 4) #11
  unreachable

48:                                               ; preds = %43, %39
  %49 = load i64, ptr %5, align 8, !tbaa !23
  %50 = load ptr, ptr %7, align 8, !tbaa !36
  %51 = getelementptr inbounds nuw %struct.global_State, ptr %50, i32 0, i32 9
  %52 = load i64, ptr %51, align 8, !tbaa !52
  %53 = add i64 %52, %49
  store i64 %53, ptr %51, align 8, !tbaa !52
  %54 = load i64, ptr %5, align 8, !tbaa !23
  %55 = load ptr, ptr %7, align 8, !tbaa !36
  %56 = getelementptr inbounds nuw %struct.global_State, ptr %55, i32 0, i32 18
  %57 = load i8, ptr %6, align 1, !tbaa !18
  %58 = zext i8 %57 to i64
  %59 = getelementptr inbounds nuw [256 x i64], ptr %56, i64 0, i64 %58
  %60 = load i64, ptr %59, align 8, !tbaa !23
  %61 = add i64 %60, %54
  store i64 %61, ptr %59, align 8, !tbaa !23
  %62 = load ptr, ptr %7, align 8, !tbaa !36
  %63 = getelementptr inbounds nuw %struct.global_State, ptr %62, i32 0, i32 30
  %64 = getelementptr inbounds nuw %struct.lua_Callbacks, ptr %63, i32 0, i32 9
  %65 = load ptr, ptr %64, align 8, !tbaa !53
  %66 = icmp ne ptr %65, null
  %67 = xor i1 %66, true
  %68 = xor i1 %67, true
  %69 = zext i1 %68 to i64
  %70 = call i64 @llvm.expect.i64(i64 %69, i64 0)
  %71 = icmp ne i64 %70, 0
  br i1 %71, label %72, label %79

72:                                               ; preds = %48
  %73 = load ptr, ptr %7, align 8, !tbaa !36
  %74 = getelementptr inbounds nuw %struct.global_State, ptr %73, i32 0, i32 30
  %75 = getelementptr inbounds nuw %struct.lua_Callbacks, ptr %74, i32 0, i32 9
  %76 = load ptr, ptr %75, align 8, !tbaa !53
  %77 = load ptr, ptr %4, align 8, !tbaa !21
  %78 = load i64, ptr %5, align 8, !tbaa !23
  call void %76(ptr noundef %77, i64 noundef 0, i64 noundef %78)
  br label %79

79:                                               ; preds = %72, %48
  %80 = load ptr, ptr %9, align 8, !tbaa !51
  call void @llvm.lifetime.end.p0(i64 8, ptr %9) #10
  call void @llvm.lifetime.end.p0(i64 4, ptr %8) #10
  call void @llvm.lifetime.end.p0(i64 8, ptr %7) #10
  ret ptr %80
}