; Function Attrs: mustprogress uwtable
define hidden noundef ptr @_Z9luaM_new_P9lua_Statemh(ptr noundef %0, i64 noundef %1, i8 noundef zeroext %2) local_unnamed_addr #3 {
  %4 = getelementptr inbounds nuw i8, ptr %0, i64 24
  %5 = load ptr, ptr %4, align 8, !tbaa !4
  %6 = add i64 %1, -1
  %7 = icmp ult i64 %6, 1024
  br i1 %7, label %8, label %.thread

8:                                                ; preds = %3
  %9 = getelementptr inbounds nuw [1025 x i8], ptr getelementptr inbounds nuw (i8, ptr @_ZL16kSizeClassConfig, i64 160), i64 0, i64 %1
  %10 = load i8, ptr %9, align 1, !tbaa !19
  %11 = icmp sgt i8 %10, -1
  br i1 %11, label %12, label %.thread

12:                                               ; preds = %8
  %13 = getelementptr inbounds nuw i8, ptr %5, i64 96
  %14 = zext nneg i8 %10 to i64
  %15 = getelementptr inbounds nuw [40 x ptr], ptr %13, i64 0, i64 %14
  %16 = load ptr, ptr %15, align 8, !tbaa !20
  %.not.i = icmp eq ptr %16, null
  br i1 %.not.i, label %17, label %19

17:                                               ; preds = %12
  %18 = tail call fastcc noundef ptr @_ZL12newclasspageP9lua_StatePP8lua_PageS3_hb(ptr noundef nonnull %0, ptr noundef nonnull %13, ptr noundef null, i8 noundef zeroext %10, i1 noundef zeroext true)
  br label %19

19:                                               ; preds = %17, %12
  %.027.i = phi ptr [ %16, %12 ], [ %18, %17 ]
  %20 = getelementptr inbounds nuw i8, ptr %.027.i, i64 48
  %21 = load i32, ptr %20, align 8, !tbaa !22
  %22 = icmp sgt i32 %21, -1
  br i1 %22, label %23, label %.thread.i

23:                                               ; preds = %19
  %24 = getelementptr inbounds nuw i8, ptr %.027.i, i64 56
  %25 = zext nneg i32 %21 to i64
  %26 = getelementptr inbounds nuw [1 x i8], ptr %24, i64 %25
  %27 = getelementptr inbounds nuw i8, ptr %.027.i, i64 36
  %28 = load i32, ptr %27, align 4, !tbaa !24
  %29 = sub nsw i32 %21, %28
  store i32 %29, ptr %20, align 8, !tbaa !22
  %30 = getelementptr inbounds nuw i8, ptr %.027.i, i64 52
  %31 = load i32, ptr %30, align 4, !tbaa !25
  %32 = add nsw i32 %31, 1
  store i32 %32, ptr %30, align 4, !tbaa !25
  %33 = icmp sgt i32 %29, -1
  store ptr %.027.i, ptr %26, align 8, !tbaa !26
  %34 = getelementptr inbounds nuw i8, ptr %.027.i, i64 40
  %35 = load ptr, ptr %34, align 8, !tbaa !27
  %.not31.i = icmp ne ptr %35, null
  %brmerge.i = select i1 %.not31.i, i1 true, i1 %33
  br i1 %brmerge.i, label %.thread23, label %.thread37.i

.thread.i:                                        ; preds = %19
  %36 = getelementptr inbounds nuw i8, ptr %.027.i, i64 40
  %37 = load ptr, ptr %36, align 8, !tbaa !27
  %38 = load ptr, ptr %37, align 8, !tbaa !26
  store ptr %38, ptr %36, align 8, !tbaa !27
  %39 = getelementptr inbounds nuw i8, ptr %.027.i, i64 52
  %40 = load i32, ptr %39, align 4, !tbaa !25
  %41 = add nsw i32 %40, 1
  store i32 %41, ptr %39, align 4, !tbaa !25
  store ptr %.027.i, ptr %37, align 8, !tbaa !26
  %42 = load ptr, ptr %36, align 8, !tbaa !27
  %.not3134.i = icmp eq ptr %42, null
  br i1 %.not3134.i, label %.thread37.i, label %.thread23

.thread37.i:                                      ; preds = %.thread.i, %23
  %.03639.i = phi ptr [ %37, %.thread.i ], [ %26, %23 ]
  %43 = getelementptr inbounds nuw i8, ptr %.027.i, i64 8
  %44 = load ptr, ptr %43, align 8, !tbaa !28
  store ptr %44, ptr %15, align 8, !tbaa !20
  %.not32.i = icmp eq ptr %44, null
  br i1 %.not32.i, label %46, label %45

45:                                               ; preds = %.thread37.i
  store ptr null, ptr %44, align 8, !tbaa !29
  br label %46

46:                                               ; preds = %45, %.thread37.i
  store ptr null, ptr %43, align 8, !tbaa !28
  br label %.thread23

.thread23:                                        ; preds = %46, %.thread.i, %23
  %.035.i = phi ptr [ %37, %.thread.i ], [ %.03639.i, %46 ], [ %26, %23 ]
  %47 = getelementptr inbounds nuw i8, ptr %.035.i, i64 8
  br label %56

.thread:                                          ; preds = %3, %8
  %48 = getelementptr inbounds nuw i8, ptr %5, i64 16
  %49 = load ptr, ptr %48, align 8, !tbaa !30
  %50 = getelementptr inbounds nuw i8, ptr %5, i64 24
  %51 = load ptr, ptr %50, align 8, !tbaa !44
  %52 = tail call noundef ptr %49(ptr noundef %51, ptr noundef null, i64 noundef 0, i64 noundef %1)
  %53 = icmp eq ptr %52, null
  %54 = icmp ne i64 %1, 0
  %or.cond = and i1 %54, %53
  br i1 %or.cond, label %55, label %56

55:                                               ; preds = %.thread
  tail call void @_Z10luaD_throwP9lua_Statei(ptr noundef nonnull %0, i32 noundef 4) #11
  unreachable

56:                                               ; preds = %.thread23, %.thread
  %57 = phi ptr [ %47, %.thread23 ], [ %52, %.thread ]
  %58 = getelementptr inbounds nuw i8, ptr %5, i64 72
  %59 = load i64, ptr %58, align 8, !tbaa !45
  %60 = add i64 %59, %1
  store i64 %60, ptr %58, align 8, !tbaa !45
  %61 = getelementptr inbounds nuw i8, ptr %5, i64 760
  %62 = zext i8 %2 to i64
  %63 = getelementptr inbounds nuw [256 x i64], ptr %61, i64 0, i64 %62
  %64 = load i64, ptr %63, align 8, !tbaa !46
  %65 = add i64 %64, %1
  store i64 %65, ptr %63, align 8, !tbaa !46
  %66 = getelementptr inbounds nuw i8, ptr %5, i64 3360
  %67 = load ptr, ptr %66, align 8, !tbaa !47
  %.not = icmp eq ptr %67, null
  br i1 %.not, label %69, label %68, !prof !48

68:                                               ; preds = %56
  tail call void %67(ptr noundef nonnull %0, i64 noundef 0, i64 noundef %1)
  br label %69

69:                                               ; preds = %68, %56
  ret ptr %57
}